; Function Attrs: mustprogress uwtable
define void @_ZN6icu_776number4impl19enum_to_stem_string16groupingStrategyE23UNumberGroupingStrategyRNS_13UnicodeStringE(i32 noundef %0, ptr noundef nonnull align 8 dereferenceable(64) %1) local_unnamed_addr #1 personality ptr @__gxx_personality_v0 {
  switch i32 %0, label %23 [
    i32 0, label %3
    i32 1, label %7
    i32 2, label %11
    i32 3, label %15
    i32 4, label %19
  ]

3:                                                ; preds = %2
  %4 = invoke noundef nonnull align 8 dereferenceable(64) ptr @_ZN6icu_7713UnicodeString8doAppendEPKDsii(ptr noundef nonnull align 8 dereferenceable(64) %1, ptr noundef nonnull @.str.11, i32 noundef 0, i32 noundef -1)
          to label %_ZN6icu_7713UnicodeString6appendENS_14ConstChar16PtrEi.exit unwind label %5

_ZN6icu_7713UnicodeString6appendENS_14ConstChar16PtrEi.exit: ; preds = %3
  tail call void asm sideeffect "", "rm,~{memory},~{dirflag},~{fpsr},~{flags}"(ptr nonnull @.str.11) #18, !srcloc !15
  br label %24

5:                                                ; preds = %3
  %6 = landingpad { ptr, i32 }
          cleanup
  tail call void asm sideeffect "", "rm,~{memory},~{dirflag},~{fpsr},~{flags}"(ptr nonnull @.str.11) #18, !srcloc !15
  br label %25

7:                                                ; preds = %2
  %8 = invoke noundef nonnull align 8 dereferenceable(64) ptr @_ZN6icu_7713UnicodeString8doAppendEPKDsii(ptr noundef nonnull align 8 dereferenceable(64) %1, ptr noundef nonnull @.str.12, i32 noundef 0, i32 noundef -1)
          to label %_ZN6icu_7713UnicodeString6appendENS_14ConstChar16PtrEi.exit9 unwind label %9

_ZN6icu_7713UnicodeString6appendENS_14ConstChar16PtrEi.exit9: ; preds = %7
  tail call void asm sideeffect "", "rm,~{memory},~{dirflag},~{fpsr},~{flags}"(ptr nonnull @.str.12) #18, !srcloc !15
  br label %24

9:                                                ; preds = %7
  %10 = landingpad { ptr, i32 }
          cleanup
  tail call void asm sideeffect "", "rm,~{memory},~{dirflag},~{fpsr},~{flags}"(ptr nonnull @.str.12) #18, !srcloc !15
  br label %25

11:                                               ; preds = %2
  %12 = invoke noundef nonnull align 8 dereferenceable(64) ptr @_ZN6icu_7713UnicodeString8doAppendEPKDsii(ptr noundef nonnull align 8 dereferenceable(64) %1, ptr noundef nonnull @.str.13, i32 noundef 0, i32 noundef -1)
          to label %_ZN6icu_7713UnicodeString6appendENS_14ConstChar16PtrEi.exit10 unwind label %13

_ZN6icu_7713UnicodeString6appendENS_14ConstChar16PtrEi.exit10: ; preds = %11
  tail call void asm sideeffect "", "rm,~{memory},~{dirflag},~{fpsr},~{flags}"(ptr nonnull @.str.13) #18, !srcloc !15
  br label %24

13:                                               ; preds = %11
  %14 = landingpad { ptr, i32 }
          cleanup
  tail call void asm sideeffect "", "rm,~{memory},~{dirflag},~{fpsr},~{flags}"(ptr nonnull @.str.13) #18, !srcloc !15
  br label %25

15:                                               ; preds = %2
  %16 = invoke noundef nonnull align 8 dereferenceable(64) ptr @_ZN6icu_7713UnicodeString8doAppendEPKDsii(ptr noundef nonnull align 8 dereferenceable(64) %1, ptr noundef nonnull @.str.14, i32 noundef 0, i32 noundef -1)
          to label %_ZN6icu_7713UnicodeString6appendENS_14ConstChar16PtrEi.exit11 unwind label %17

_ZN6icu_7713UnicodeString6appendENS_14ConstChar16PtrEi.exit11: ; preds = %15
  tail call void asm sideeffect "", "rm,~{memory},~{dirflag},~{fpsr},~{flags}"(ptr nonnull @.str.14) #18, !srcloc !15
  br label %24

17:                                               ; preds = %15
  %18 = landingpad { ptr, i32 }
          cleanup
  tail call void asm sideeffect "", "rm,~{memory},~{dirflag},~{fpsr},~{flags}"(ptr nonnull @.str.14) #18, !srcloc !15
  br label %25

19:                                               ; preds = %2
  %20 = invoke noundef nonnull align 8 dereferenceable(64) ptr @_ZN6icu_7713UnicodeString8doAppendEPKDsii(ptr noundef nonnull align 8 dereferenceable(64) %1, ptr noundef nonnull @.str.15, i32 noundef 0, i32 noundef -1)
          to label %_ZN6icu_7713UnicodeString6appendENS_14ConstChar16PtrEi.exit12 unwind label %21

_ZN6icu_7713UnicodeString6appendENS_14ConstChar16PtrEi.exit12: ; preds = %19
  tail call void asm sideeffect "", "rm,~{memory},~{dirflag},~{fpsr},~{flags}"(ptr nonnull @.str.15) #18, !srcloc !15
  br label %24

21:                                               ; preds = %19
  %22 = landingpad { ptr, i32 }
          cleanup
  tail call void asm sideeffect "", "rm,~{memory},~{dirflag},~{fpsr},~{flags}"(ptr nonnull @.str.15) #18, !srcloc !15
  br label %25

23:                                               ; preds = %2
  tail call void @abort() #20
  unreachable

24:                                               ; preds = %_ZN6icu_7713UnicodeString6appendENS_14ConstChar16PtrEi.exit12, %_ZN6icu_7713UnicodeString6appendENS_14ConstChar16PtrEi.exit11, %_ZN6icu_7713UnicodeString6appendENS_14ConstChar16PtrEi.exit10, %_ZN6icu_7713UnicodeString6appendENS_14ConstChar16PtrEi.exit9, %_ZN6icu_7713UnicodeString6appendENS_14ConstChar16PtrEi.exit
  ret void

25:                                               ; preds = %21, %17, %13, %9, %5
  %.pn = phi { ptr, i32 } [ %22, %21 ], [ %18, %17 ], [ %14, %13 ], [ %10, %9 ], [ %6, %5 ]
  resume { ptr, i32 } %.pn
}